target datalayout = "e-m:e-p270:32:32-p271:32:32-p272:64:64-i64:64-i128:128-f80:128-n8:16:32:64-S128"
target triple = "x86_64-pc-linux-gnu"

%struct._GHashTableIter = type { ptr, ptr, ptr, i32, i32, ptr }
%struct.ssl_master_key_map_t = type { ptr, ptr, ptr, ptr, ptr, ptr, ptr, ptr, ptr, ptr, ptr, ptr, ptr, ptr, ptr }
%struct._GString = type { ptr, i64, i64 }

@.str = private unnamed_addr constant [1 x i8] zeroinitializer, align 1
@.str.1 = private unnamed_addr constant [15 x i8] c"CLIENT_RANDOM \00", align 1
@.str.2 = private unnamed_addr constant [29 x i8] c"CLIENT_EARLY_TRAFFIC_SECRET \00", align 1
@.str.3 = private unnamed_addr constant [33 x i8] c"CLIENT_HANDSHAKE_TRAFFIC_SECRET \00", align 1
@.str.4 = private unnamed_addr constant [33 x i8] c"SERVER_HANDSHAKE_TRAFFIC_SECRET \00", align 1
@.str.5 = private unnamed_addr constant [25 x i8] c"SERVER_TRAFFIC_SECRET_0 \00", align 1
@.str.6 = private unnamed_addr constant [25 x i8] c"CLIENT_TRAFFIC_SECRET_0 \00", align 1
@.str.7 = private unnamed_addr constant [23 x i8] c"EARLY_EXPORTER_SECRET \00", align 1
@.str.8 = private unnamed_addr constant [17 x i8] c"EXPORTER_SECRET \00", align 1

; Function Attrs: null_pointer_is_valid sspstrong uwtable
define hidden ptr @ssl_export_sessions(ptr noundef %0) #0 {
  %2 = alloca ptr, align 8
  %3 = alloca ptr, align 8
  %4 = alloca ptr, align 8
  %5 = alloca i32, align 4
  %6 = alloca i64, align 8
  %7 = alloca ptr, align 8
  %8 = alloca %struct._GHashTableIter, align 8
  %9 = alloca ptr, align 8
  %10 = alloca ptr, align 8
  store ptr %0, ptr %3, align 8
  call void @llvm.lifetime.start.p0(i64 8, ptr %4) #5
  %11 = call ptr @tls_get_master_key_map(i1 noundef zeroext false)
  store ptr %11, ptr %4, align 8
  %12 = load ptr, ptr %4, align 8
  %13 = icmp ne ptr %12, null
  br i1 %13, label %17, label %14

14:                                               ; preds = %1
  %15 = load ptr, ptr %3, align 8
  store i64 0, ptr %15, align 8
  %16 = call noalias ptr @g_strdup(ptr noundef @.str)
  store ptr %16, ptr %2, align 8
  store i32 1, ptr %5, align 4
  br label %125

17:                                               ; preds = %1
  call void @llvm.lifetime.start.p0(i64 8, ptr %6) #5
  %18 = call i32 @ssl_session_key_count()
  %19 = sext i32 %18 to i64
  %20 = mul i64 177, %19
  store i64 %20, ptr %6, align 8
  call void @llvm.lifetime.start.p0(i64 8, ptr %7) #5
  %21 = load i64, ptr %6, align 8
  %22 = call ptr @g_string_sized_new(i64 noundef %21)
  store ptr %22, ptr %7, align 8
  call void @llvm.lifetime.start.p0(i64 40, ptr %8) #5
  call void @llvm.lifetime.start.p0(i64 8, ptr %9) #5
  call void @llvm.lifetime.start.p0(i64 8, ptr %10) #5
  %23 = load ptr, ptr %4, align 8
  %24 = getelementptr inbounds nuw %struct.ssl_master_key_map_t, ptr %23, i32 0, i32 14
  %25 = load ptr, ptr %24, align 8
  call void @g_hash_table_iter_init(ptr noundef %8, ptr noundef %25)
  br label %26

26:                                               ; preds = %117, %17
  %27 = call i32 @g_hash_table_iter_next(ptr noundef %8, ptr noundef %9, ptr noundef null)
  %28 = icmp ne i32 %27, 0
  br i1 %28, label %29, label %118

29:                                               ; preds = %26
  %30 = load ptr, ptr %4, align 8
  %31 = getelementptr inbounds nuw %struct.ssl_master_key_map_t, ptr %30, i32 0, i32 2
  %32 = load ptr, ptr %31, align 8
  %33 = load ptr, ptr %9, align 8
  %34 = call ptr @g_hash_table_lookup(ptr noundef %32, ptr noundef %33)
  store ptr %34, ptr %10, align 8
  %35 = icmp ne ptr %34, null
  br i1 %35, label %36, label %40

36:                                               ; preds = %29
  %37 = load ptr, ptr %9, align 8
  %38 = load ptr, ptr %10, align 8
  %39 = load ptr, ptr %7, align 8
  call void @tls_export_client_randoms_func(ptr noundef %37, ptr noundef %38, ptr noundef %39, ptr noundef @.str.1)
  br label %40

40:                                               ; preds = %36, %29
  %41 = load ptr, ptr %4, align 8
  %42 = getelementptr inbounds nuw %struct.ssl_master_key_map_t, ptr %41, i32 0, i32 5
  %43 = load ptr, ptr %42, align 8
  %44 = load ptr, ptr %9, align 8
  %45 = call ptr @g_hash_table_lookup(ptr noundef %43, ptr noundef %44)
  store ptr %45, ptr %10, align 8
  %46 = icmp ne ptr %45, null
  br i1 %46, label %47, label %51

47:                                               ; preds = %40
  %48 = load ptr, ptr %9, align 8
  %49 = load ptr, ptr %10, align 8
  %50 = load ptr, ptr %7, align 8
  call void @tls_export_client_randoms_func(ptr noundef %48, ptr noundef %49, ptr noundef %50, ptr noundef @.str.2)
  br label %51

51:                                               ; preds = %47, %40
  %52 = load ptr, ptr %4, align 8
  %53 = getelementptr inbounds nuw %struct.ssl_master_key_map_t, ptr %52, i32 0, i32 6
  %54 = load ptr, ptr %53, align 8
  %55 = load ptr, ptr %9, align 8
  %56 = call ptr @g_hash_table_lookup(ptr noundef %54, ptr noundef %55)
  store ptr %56, ptr %10, align 8
  %57 = icmp ne ptr %56, null
  br i1 %57, label %58, label %62

58:                                               ; preds = %51
  %59 = load ptr, ptr %9, align 8
  %60 = load ptr, ptr %10, align 8
  %61 = load ptr, ptr %7, align 8
  call void @tls_export_client_randoms_func(ptr noundef %59, ptr noundef %60, ptr noundef %61, ptr noundef @.str.3)
  br label %62

62:                                               ; preds = %58, %51
  %63 = load ptr, ptr %4, align 8
  %64 = getelementptr inbounds nuw %struct.ssl_master_key_map_t, ptr %63, i32 0, i32 7
  %65 = load ptr, ptr %64, align 8
  %66 = load ptr, ptr %9, align 8
  %67 = call ptr @g_hash_table_lookup(ptr noundef %65, ptr noundef %66)
  store ptr %67, ptr %10, align 8
  %68 = icmp ne ptr %67, null
  br i1 %68, label %69, label %73

69:                                               ; preds = %62
  %70 = load ptr, ptr %9, align 8
  %71 = load ptr, ptr %10, align 8
  %72 = load ptr, ptr %7, align 8
  call void @tls_export_client_randoms_func(ptr noundef %70, ptr noundef %71, ptr noundef %72, ptr noundef @.str.4)
  br label %73

73:                                               ; preds = %69, %62
  %74 = load ptr, ptr %4, align 8
  %75 = getelementptr inbounds nuw %struct.ssl_master_key_map_t, ptr %74, i32 0, i32 9
  %76 = load ptr, ptr %75, align 8
  %77 = load ptr, ptr %9, align 8
  %78 = call ptr @g_hash_table_lookup(ptr noundef %76, ptr noundef %77)
  store ptr %78, ptr %10, align 8
  %79 = icmp ne ptr %78, null
  br i1 %79, label %80, label %84

80:                                               ; preds = %73
  %81 = load ptr, ptr %9, align 8
  %82 = load ptr, ptr %10, align 8
  %83 = load ptr, ptr %7, align 8
  call void @tls_export_client_randoms_func(ptr noundef %81, ptr noundef %82, ptr noundef %83, ptr noundef @.str.5)
  br label %84

84:                                               ; preds = %80, %73
  %85 = load ptr, ptr %4, align 8
  %86 = getelementptr inbounds nuw %struct.ssl_master_key_map_t, ptr %85, i32 0, i32 8
  %87 = load ptr, ptr %86, align 8
  %88 = load ptr, ptr %9, align 8
  %89 = call ptr @g_hash_table_lookup(ptr noundef %87, ptr noundef %88)
  store ptr %89, ptr %10, align 8
  %90 = icmp ne ptr %89, null
  br i1 %90, label %91, label %95

91:                                               ; preds = %84
  %92 = load ptr, ptr %9, align 8
  %93 = load ptr, ptr %10, align 8
  %94 = load ptr, ptr %7, align 8
  call void @tls_export_client_randoms_func(ptr noundef %92, ptr noundef %93, ptr noundef %94, ptr noundef @.str.6)
  br label %95

95:                                               ; preds = %91, %84
  %96 = load ptr, ptr %4, align 8
  %97 = getelementptr inbounds nuw %struct.ssl_master_key_map_t, ptr %96, i32 0, i32 10
  %98 = load ptr, ptr %97, align 8
  %99 = load ptr, ptr %9, align 8
  %100 = call ptr @g_hash_table_lookup(ptr noundef %98, ptr noundef %99)
  store ptr %100, ptr %10, align 8
  %101 = icmp ne ptr %100, null
  br i1 %101, label %102, label %106

102:                                              ; preds = %95
  %103 = load ptr, ptr %9, align 8
  %104 = load ptr, ptr %10, align 8
  %105 = load ptr, ptr %7, align 8
  call void @tls_export_client_randoms_func(ptr noundef %103, ptr noundef %104, ptr noundef %105, ptr noundef @.str.7)
  br label %106

106:                                              ; preds = %102, %95
  %107 = load ptr, ptr %4, align 8
  %108 = getelementptr inbounds nuw %struct.ssl_master_key_map_t, ptr %107, i32 0, i32 11
  %109 = load ptr, ptr %108, align 8
  %110 = load ptr, ptr %9, align 8
  %111 = call ptr @g_hash_table_lookup(ptr noundef %109, ptr noundef %110)
  store ptr %111, ptr %10, align 8
  %112 = icmp ne ptr %111, null
  br i1 %112, label %113, label %117

113:                                              ; preds = %106
  %114 = load ptr, ptr %9, align 8
  %115 = load ptr, ptr %10, align 8
  %116 = load ptr, ptr %7, align 8
  call void @tls_export_client_randoms_func(ptr noundef %114, ptr noundef %115, ptr noundef %116, ptr noundef @.str.8)
  br label %117

117:                                              ; preds = %113, %106
  br label %26, !llvm.loop !8

118:                                              ; preds = %26
  %119 = load ptr, ptr %7, align 8
  %120 = getelementptr inbounds nuw %struct._GString, ptr %119, i32 0, i32 1
  %121 = load i64, ptr %120, align 8
  %122 = load ptr, ptr %3, align 8
  store i64 %121, ptr %122, align 8
  %123 = load ptr, ptr %7, align 8
  %124 = call ptr @g_string_free(ptr noundef %123, i32 noundef 0)
  store ptr %124, ptr %2, align 8
  store i32 1, ptr %5, align 4
  call void @llvm.lifetime.end.p0(i64 8, ptr %10) #5
  call void @llvm.lifetime.end.p0(i64 8, ptr %9) #5
  call void @llvm.lifetime.end.p0(i64 40, ptr %8) #5
  call void @llvm.lifetime.end.p0(i64 8, ptr %7) #5
  call void @llvm.lifetime.end.p0(i64 8, ptr %6) #5
  br label %125

125:                                              ; preds = %118, %14
  call void @llvm.lifetime.end.p0(i64 8, ptr %4) #5
  %126 = load ptr, ptr %2, align 8
  ret ptr %126
}