; Function Attrs: null_pointer_is_valid sspstrong uwtable
define hidden ptr @ssl_export_sessions(ptr noundef writeonly captures(none) %0) local_unnamed_addr #0 {
  %2 = alloca %struct._GHashTableIter, align 8
  %3 = alloca ptr, align 8
  %4 = tail call ptr @tls_get_master_key_map(i1 noundef zeroext false)
  %.not = icmp eq ptr %4, null
  br i1 %.not, label %5, label %7

5:                                                ; preds = %1
  store i64 0, ptr %0, align 8
  %6 = tail call noalias ptr @g_strdup(ptr noundef nonnull @.str)
  br label %76

7:                                                ; preds = %1
  %8 = tail call i32 @ssl_session_key_count()
  %9 = sext i32 %8 to i64
  %10 = mul nsw i64 %9, 177
  %11 = tail call ptr @g_string_sized_new(i64 noundef %10)
  call void @llvm.lifetime.start.p0(i64 40, ptr nonnull %2) #4
  call void @llvm.lifetime.start.p0(i64 8, ptr nonnull %3) #4
  %12 = getelementptr inbounds nuw i8, ptr %4, i64 112
  %13 = load ptr, ptr %12, align 8
  call void @g_hash_table_iter_init(ptr noundef nonnull %2, ptr noundef %13)
  %14 = call i32 @g_hash_table_iter_next(ptr noundef nonnull %2, ptr noundef nonnull %3, ptr noundef null)
  %.not4049 = icmp eq i32 %14, 0
  br i1 %.not4049, label %._crit_edge, label %.lr.ph

.lr.ph:                                           ; preds = %7
  %15 = getelementptr inbounds nuw i8, ptr %4, i64 16
  %16 = getelementptr inbounds nuw i8, ptr %4, i64 40
  %17 = getelementptr inbounds nuw i8, ptr %4, i64 48
  %18 = getelementptr inbounds nuw i8, ptr %4, i64 56
  %19 = getelementptr inbounds nuw i8, ptr %4, i64 72
  %20 = getelementptr inbounds nuw i8, ptr %4, i64 64
  %21 = getelementptr inbounds nuw i8, ptr %4, i64 80
  %22 = getelementptr inbounds nuw i8, ptr %4, i64 88
  br label %23

23:                                               ; preds = %.lr.ph, %71
  %24 = load ptr, ptr %15, align 8
  %25 = load ptr, ptr %3, align 8
  %26 = call ptr @g_hash_table_lookup(ptr noundef %24, ptr noundef %25)
  %.not41 = icmp eq ptr %26, null
  br i1 %.not41, label %29, label %27

27:                                               ; preds = %23
  %28 = load ptr, ptr %3, align 8
  call fastcc void @tls_export_client_randoms_func(ptr noundef %28, ptr noundef %26, ptr noundef %11, ptr noundef nonnull @.str.1)
  br label %29

29:                                               ; preds = %27, %23
  %30 = load ptr, ptr %16, align 8
  %31 = load ptr, ptr %3, align 8
  %32 = call ptr @g_hash_table_lookup(ptr noundef %30, ptr noundef %31)
  %.not42 = icmp eq ptr %32, null
  br i1 %.not42, label %35, label %33

33:                                               ; preds = %29
  %34 = load ptr, ptr %3, align 8
  call fastcc void @tls_export_client_randoms_func(ptr noundef %34, ptr noundef %32, ptr noundef %11, ptr noundef nonnull @.str.2)
  br label %35

35:                                               ; preds = %33, %29
  %36 = load ptr, ptr %17, align 8
  %37 = load ptr, ptr %3, align 8
  %38 = call ptr @g_hash_table_lookup(ptr noundef %36, ptr noundef %37)
  %.not43 = icmp eq ptr %38, null
  br i1 %.not43, label %41, label %39

39:                                               ; preds = %35
  %40 = load ptr, ptr %3, align 8
  call fastcc void @tls_export_client_randoms_func(ptr noundef %40, ptr noundef %38, ptr noundef %11, ptr noundef nonnull @.str.3)
  br label %41

41:                                               ; preds = %39, %35
  %42 = load ptr, ptr %18, align 8
  %43 = load ptr, ptr %3, align 8
  %44 = call ptr @g_hash_table_lookup(ptr noundef %42, ptr noundef %43)
  %.not44 = icmp eq ptr %44, null
  br i1 %.not44, label %47, label %45

45:                                               ; preds = %41
  %46 = load ptr, ptr %3, align 8
  call fastcc void @tls_export_client_randoms_func(ptr noundef %46, ptr noundef %44, ptr noundef %11, ptr noundef nonnull @.str.4)
  br label %47

47:                                               ; preds = %45, %41
  %48 = load ptr, ptr %19, align 8
  %49 = load ptr, ptr %3, align 8
  %50 = call ptr @g_hash_table_lookup(ptr noundef %48, ptr noundef %49)
  %.not45 = icmp eq ptr %50, null
  br i1 %.not45, label %53, label %51

51:                                               ; preds = %47
  %52 = load ptr, ptr %3, align 8
  call fastcc void @tls_export_client_randoms_func(ptr noundef %52, ptr noundef %50, ptr noundef %11, ptr noundef nonnull @.str.5)
  br label %53

53:                                               ; preds = %51, %47
  %54 = load ptr, ptr %20, align 8
  %55 = load ptr, ptr %3, align 8
  %56 = call ptr @g_hash_table_lookup(ptr noundef %54, ptr noundef %55)
  %.not46 = icmp eq ptr %56, null
  br i1 %.not46, label %59, label %57

57:                                               ; preds = %53
  %58 = load ptr, ptr %3, align 8
  call fastcc void @tls_export_client_randoms_func(ptr noundef %58, ptr noundef %56, ptr noundef %11, ptr noundef nonnull @.str.6)
  br label %59

59:                                               ; preds = %57, %53
  %60 = load ptr, ptr %21, align 8
  %61 = load ptr, ptr %3, align 8
  %62 = call ptr @g_hash_table_lookup(ptr noundef %60, ptr noundef %61)
  %.not47 = icmp eq ptr %62, null
  br i1 %.not47, label %65, label %63

63:                                               ; preds = %59
  %64 = load ptr, ptr %3, align 8
  call fastcc void @tls_export_client_randoms_func(ptr noundef %64, ptr noundef %62, ptr noundef %11, ptr noundef nonnull @.str.7)
  br label %65

65:                                               ; preds = %63, %59
  %66 = load ptr, ptr %22, align 8
  %67 = load ptr, ptr %3, align 8
  %68 = call ptr @g_hash_table_lookup(ptr noundef %66, ptr noundef %67)
  %.not48 = icmp eq ptr %68, null
  br i1 %.not48, label %71, label %69

69:                                               ; preds = %65
  %70 = load ptr, ptr %3, align 8
  call fastcc void @tls_export_client_randoms_func(ptr noundef %70, ptr noundef %68, ptr noundef %11, ptr noundef nonnull @.str.8)
  br label %71

71:                                               ; preds = %69, %65
  %72 = call i32 @g_hash_table_iter_next(ptr noundef nonnull %2, ptr noundef nonnull %3, ptr noundef null)
  %.not40 = icmp eq i32 %72, 0
  br i1 %.not40, label %._crit_edge, label %23, !llvm.loop !8

._crit_edge:                                      ; preds = %71, %7
  %73 = getelementptr inbounds nuw i8, ptr %11, i64 8
  %74 = load i64, ptr %73, align 8
  store i64 %74, ptr %0, align 8
  %75 = call ptr @g_string_free(ptr noundef %11, i32 noundef 0)
  call void @llvm.lifetime.end.p0(i64 8, ptr nonnull %3) #4
  call void @llvm.lifetime.end.p0(i64 40, ptr nonnull %2) #4
  br label %76

76:                                               ; preds = %._crit_edge, %5
  %.0 = phi ptr [ %75, %._crit_edge ], [ %6, %5 ]
  ret ptr %.0
}